Certificate:
    Data:
        Version: 3 (0x2)
        Serial Number: 0 (0x0)
        Signature Algorithm: sha256WithRSAEncryption
        Issuer: C=CA, ST=Ontario, L=Toronto, O=equalit.ie, OU=Certification Services, CN=equalit.ie Root CA
        Validity
            Not Before: May 11 03:34:45 2015 GMT
            Not After : May  6 03:34:45 2035 GMT
        Subject: C=CA, ST=Ontario, L=Toronto, O=equalit.ie, OU=Certification Services, CN=equalit.ie Root CA
        Subject Public Key Info:
            Public Key Algorithm: rsaEncryption
            RSA Public Key: (2048 bit)
                Modulus (2048 bit):
                    00:a6:9f:84:8d:f8:8b:36:f5:e3:78:05:82:05:d1:
                    19:e1:54:7c:98:c3:9b:0c:f0:42:fc:af:d0:8d:52:
                    2a:0a:62:20:7c:dd:16:fc:db:67:93:fc:45:46:80:
                    c7:b9:09:ba:9e:91:ca:d8:2b:35:60:ae:49:70:e3:
                    fe:2b:75:18:3e:02:90:49:c8:5a:cd:64:e4:e9:0b:
                    43:8f:f9:79:b6:e5:03:ac:d8:a6:a3:05:8b:23:78:
                    af:a0:9a:e7:51:eb:91:b8:f5:57:21:b0:62:31:14:
                    52:71:35:0a:f7:df:d2:2e:d1:8b:1b:c7:c6:31:06:
                    be:c5:47:38:8e:73:65:8f:25:64:06:59:96:e5:9b:
                    f3:23:4f:18:cc:6a:67:64:5b:56:ba:0e:98:f5:2b:
                    4e:f7:ce:56:63:fd:ec:d0:0a:b8:d9:d0:06:1b:2b:
                    24:c5:3e:63:87:4c:2a:57:d7:6b:4b:3f:49:41:86:
                    3c:bd:63:86:94:3f:f2:f4:f8:41:ed:e6:01:33:ed:
                    68:32:85:a9:67:b9:81:c4:7c:2e:13:7e:c4:89:48:
                    54:32:cb:14:71:1b:88:04:b4:25:dc:fe:82:20:cb:
                    ad:c0:91:ba:19:c4:b3:11:6a:8f:e4:92:34:4f:be:
                    76:fd:91:af:b0:18:fd:e5:31:00:57:d6:6d:cb:82:
                    0a:df
                Exponent: 65537 (0x10001)
        X509v3 extensions:
            X509v3 Basic Constraints: critical
                CA:TRUE
            X509v3 Key Usage: 
                Certificate Sign, CRL Sign
            Netscape Cert Type: 
                Object Signing CA
            Netscape CA Policy Url: 
                http://example.com/ca-policy/
            X509v3 Subject Key Identifier: 
                F7:CB:2E:6A:8A:63:B2:CB:88:EF:86:9A:36:4A:E0:43:FD:4E:69:98
    Signature Algorithm: sha256WithRSAEncryption
        a6:2f:f2:06:65:62:74:c9:59:9b:a0:8a:41:a4:7c:fe:00:d1:
        a6:a7:3f:f1:f6:a3:03:0e:d2:b6:57:eb:2d:46:77:7b:ff:9e:
        37:f0:36:a8:31:3d:f4:99:14:97:bd:85:94:2f:0e:19:88:3d:
        71:2e:ea:7c:7a:62:14:f7:5d:66:ed:f7:79:e5:8e:29:a5:2e:
        20:9d:e3:fa:1a:d8:ff:b9:f9:36:6a:54:d1:8c:f7:7f:73:c9:
        98:48:f2:93:83:48:1d:1d:76:bb:4a:fb:2c:ce:08:71:bc:c0:
        46:5d:11:81:74:b9:15:ef:33:47:66:34:1a:04:73:ab:82:6c:
        5d:8f:bf:05:57:14:73:eb:45:85:1c:93:de:c6:1d:d5:b2:f5:
        27:00:6a:e3:42:38:1a:05:7d:39:01:bc:b5:b4:58:6b:f9:b0:
        4c:de:81:d2:2c:99:f0:98:94:25:df:34:30:5b:1b:61:76:ad:
        a3:7e:b2:e8:2a:de:17:e5:94:cf:db:f3:96:ea:f0:ef:94:f3:
        ff:e5:61:39:3f:ba:92:65:53:90:64:17:f7:7f:27:85:0c:78:
        a4:a9:e2:d9:21:df:ae:97:d7:12:fe:9e:ff:23:47:70:b5:1e:
        4a:eb:71:dc:fa:33:ec:cb:5d:01:c8:83:0a:cd:6a:1c:f8:e4:
        cf:85:16:e0
-----BEGIN CERTIFICATE-----
MIIEBjCCAu6gAwIBAgIBADANBgkqhkiG9w0BAQsFADCBhDELMAkGA1UEBhMCQ0Ex
EDAOBgNVBAgTB09udGFyaW8xEDAOBgNVBAcTB1Rvcm9udG8xEzARBgNVBAoTCmVx
dWFsaXQuaWUxHzAdBgNVBAsTFkNlcnRpZmljYXRpb24gU2VydmljZXMxGzAZBgNV
BAMTEmVxdWFsaXQuaWUgUm9vdCBDQTAeFw0xNTA1MTEwMzM0NDVaFw0zNTA1MDYw
MzM0NDVaMIGEMQswCQYDVQQGEwJDQTEQMA4GA1UECBMHT250YXJpbzEQMA4GA1UE
BxMHVG9yb250bzETMBEGA1UEChMKZXF1YWxpdC5pZTEfMB0GA1UECxMWQ2VydGlm
aWNhdGlvbiBTZXJ2aWNlczEbMBkGA1UEAxMSZXF1YWxpdC5pZSBSb290IENBMIIB
IjANBgkqhkiG9w0BAQEFAAOCAQ8AMIIBCgKCAQEApp+EjfiLNvXjeAWCBdEZ4VR8
mMObDPBC/K/QjVIqCmIgfN0W/Ntnk/xFRoDHuQm6npHK2Cs1YK5JcOP+K3UYPgKQ
SchazWTk6QtDj/l5tuUDrNimowWLI3ivoJrnUeuRuPVXIbBiMRRScTUK99/SLtGL
G8fGMQa+xUc4jnNljyVkBlmW5ZvzI08YzGpnZFtWug6Y9StO985WY/3s0Aq42dAG
GyskxT5jh0wqV9drSz9JQYY8vWOGlD/y9PhB7eYBM+1oMoWpZ7mBxHwuE37EiUhU
MssUcRuIBLQl3P6CIMutwJG6GcSzEWqP5JI0T752/ZGvsBj95TEAV9Zty4IK3wID
AQABo4GAMH4wDwYDVR0TAQH/BAUwAwEB/zALBgNVHQ8EBAMCAQYwEQYJYIZIAYb4
QgEBBAQDAgABMCwGCWCGSAGG+EIBCAQfFh1odHRwOi8vZXhhbXBsZS5jb20vY2Et
cG9saWN5LzAdBgNVHQ4EFgQU98suaopjssuI74aaNkrgQ/1OaZgwDQYJKoZIhvcN
AQELBQADggEBAKYv8gZlYnTJWZugikGkfP4A0aanP/H2owMO0rZX6y1Gd3v/njfw
NqgxPfSZFJe9hZQvDhmIPXEu6nx6YhT3XWbt93nljimlLiCd4/oa2P+5+TZqVNGM
939zyZhI8pODSB0ddrtK+yzOCHG8wEZdEYF0uRXvM0dmNBoEc6uCbF2PvwVXFHPr
RYUck97GHdWy9ScAauNCOBoFfTkBvLW0WGv5sEzegdIsmfCYlCXfNDBbG2F2raN+
sugq3hfllM/b85bq8O+U8//lYTk/upJlU5BkF/d/J4UMeKSp4tkh366X1xL+nv8j
R3C1Hkrrcdz6M+zLXQHIgwrNahz45M+FFuA=
-----END CERTIFICATE-----
