Certificate:
    Data:
        Version: 3 (0x2)
        Serial Number: 0 (0x0)
        Signature Algorithm: sha256WithRSAEncryption
        Issuer: C=CA, ST=Ontario, L=Montreal, O=eQualit.ie, OU=eQualit.ie Certification Services, CN=eQualit.ie Root Certificate/emailAddress=sysops@equalit.ie
        Validity
            Not Before: May 25 20:17:13 2015 GMT
            Not After : May 20 20:17:13 2035 GMT
        Subject: C=CA, ST=Ontario, L=Montreal, O=eQualit.ie, OU=eQualit.ie Certification Services, CN=eQualit.ie Root Certificate/emailAddress=sysops@equalit.ie
        Subject Public Key Info:
            Public Key Algorithm: rsaEncryption
            RSA Public Key: (2048 bit)
                Modulus (2048 bit):
                    00:c6:8a:e3:8e:9d:de:d3:2e:72:1e:35:65:27:c9:
                    71:a6:e6:d2:4e:3f:1c:3d:19:0f:74:6e:d0:b3:f9:
                    47:93:e1:f0:7b:f9:ab:ee:18:1c:de:9c:ee:42:fb:
                    e0:05:9c:00:b1:19:59:e2:f2:17:0a:16:1e:75:c8:
                    f3:19:90:b7:0a:a4:15:f7:97:c9:f1:b6:a9:72:c8:
                    b9:fe:21:01:d4:6e:65:f0:db:da:ab:41:49:cf:d4:
                    4e:d2:04:2f:27:68:73:a7:c7:d0:e1:54:1e:49:e8:
                    d8:9a:3f:df:c4:e2:ff:e1:4f:e1:4f:73:b4:54:15:
                    08:77:d0:8b:6f:06:d2:f2:17:2f:49:2f:5b:7e:cd:
                    f1:56:5d:68:b2:47:fc:95:55:34:09:ad:82:e5:5c:
                    d4:26:60:01:9b:1e:52:e1:14:33:6c:b3:5f:18:eb:
                    04:f4:36:a8:42:ce:2c:2e:01:75:d3:16:b0:7c:7e:
                    36:c4:3f:5b:e8:3e:9a:77:fe:68:eb:ac:2d:35:82:
                    ca:6c:f8:95:83:7f:c7:9d:61:c4:22:2c:a2:6a:24:
                    0a:cf:6b:b4:bf:2b:90:56:b5:f4:a6:ea:8e:81:68:
                    05:79:e4:8f:7f:f8:26:31:00:4d:be:80:77:c0:b1:
                    47:0a:07:7a:ef:42:43:04:29:55:ec:0f:a3:70:ac:
                    00:a3
                Exponent: 65537 (0x10001)
        X509v3 extensions:
            X509v3 Basic Constraints: critical
                CA:TRUE
            X509v3 Key Usage: 
                Certificate Sign, CRL Sign
            Netscape Cert Type: 
                Object Signing CA
            Netscape CA Policy Url: 
                http://example.com/ca-policy/
            X509v3 Subject Key Identifier: 
                59:6B:A3:FF:0C:40:4D:52:DA:BD:B2:91:C8:07:1E:8B:47:FE:5B:1C
    Signature Algorithm: sha256WithRSAEncryption
        65:9d:2d:8c:60:b8:91:ee:cf:ae:0c:f1:fa:e3:15:39:b9:f2:
        ee:a4:22:2e:a9:07:ee:c6:c0:a6:8c:94:62:b2:8b:c6:81:09:
        0a:c2:21:4e:09:3f:1d:e0:96:63:85:56:a7:c7:ec:a7:99:8c:
        64:16:fc:69:4a:a7:83:55:64:32:d9:82:0c:b3:21:7c:e0:28:
        fd:9d:15:93:72:de:e2:91:1d:b1:b0:a4:4e:aa:b0:49:fa:45:
        7c:65:5a:00:7f:58:fc:17:50:b4:2c:ff:63:ae:1d:2d:7a:26:
        12:d4:d8:4b:8b:cb:f6:81:d5:91:a5:a1:72:cb:69:23:07:96:
        6a:a4:8c:69:93:c1:71:59:85:23:9e:87:b7:50:ea:4d:4d:c2:
        b1:a4:c1:fa:b5:f2:2e:17:26:f1:87:0d:8d:d1:b3:f9:c0:e3:
        f7:f4:7d:d7:39:96:48:ae:ea:d5:fd:7c:8d:1c:e4:d3:cb:9c:
        99:aa:5e:de:7a:8f:41:86:81:c0:86:4b:0a:55:f4:78:f5:43:
        68:91:7f:9a:f8:ce:e2:11:47:fc:00:0e:56:fe:47:29:11:89:
        2e:c6:7a:85:3d:aa:1b:08:aa:6e:3a:61:f0:6e:c0:67:65:27:
        f9:a3:31:b8:3b:27:d4:db:50:99:97:bc:d5:51:8f:5d:1f:30:
        78:75:9b:9f
-----BEGIN CERTIFICATE-----
MIIEdDCCA1ygAwIBAgIBADANBgkqhkiG9w0BAQsFADCBuzELMAkGA1UEBhMCQ0Ex
EDAOBgNVBAgTB09udGFyaW8xETAPBgNVBAcTCE1vbnRyZWFsMRMwEQYDVQQKEwpl
UXVhbGl0LmllMSowKAYDVQQLEyFlUXVhbGl0LmllIENlcnRpZmljYXRpb24gU2Vy
dmljZXMxJDAiBgNVBAMTG2VRdWFsaXQuaWUgUm9vdCBDZXJ0aWZpY2F0ZTEgMB4G
CSqGSIb3DQEJARYRc3lzb3BzQGVxdWFsaXQuaWUwHhcNMTUwNTI1MjAxNzEzWhcN
MzUwNTIwMjAxNzEzWjCBuzELMAkGA1UEBhMCQ0ExEDAOBgNVBAgTB09udGFyaW8x
ETAPBgNVBAcTCE1vbnRyZWFsMRMwEQYDVQQKEwplUXVhbGl0LmllMSowKAYDVQQL
EyFlUXVhbGl0LmllIENlcnRpZmljYXRpb24gU2VydmljZXMxJDAiBgNVBAMTG2VR
dWFsaXQuaWUgUm9vdCBDZXJ0aWZpY2F0ZTEgMB4GCSqGSIb3DQEJARYRc3lzb3Bz
QGVxdWFsaXQuaWUwggEiMA0GCSqGSIb3DQEBAQUAA4IBDwAwggEKAoIBAQDGiuOO
nd7TLnIeNWUnyXGm5tJOPxw9GQ90btCz+UeT4fB7+avuGBzenO5C++AFnACxGVni
8hcKFh51yPMZkLcKpBX3l8nxtqlyyLn+IQHUbmXw29qrQUnP1E7SBC8naHOnx9Dh
VB5J6NiaP9/E4v/hT+FPc7RUFQh30ItvBtLyFy9JL1t+zfFWXWiyR/yVVTQJrYLl
XNQmYAGbHlLhFDNss18Y6wT0NqhCziwuAXXTFrB8fjbEP1voPpp3/mjrrC01gsps
+JWDf8edYcQiLKJqJArPa7S/K5BWtfSm6o6BaAV55I9/+CYxAE2+gHfAsUcKB3rv
QkMEKVXsD6NwrACjAgMBAAGjgYAwfjAPBgNVHRMBAf8EBTADAQH/MAsGA1UdDwQE
AwIBBjARBglghkgBhvhCAQEEBAMCAAEwLAYJYIZIAYb4QgEIBB8WHWh0dHA6Ly9l
eGFtcGxlLmNvbS9jYS1wb2xpY3kvMB0GA1UdDgQWBBRZa6P/DEBNUtq9spHIBx6L
R/5bHDANBgkqhkiG9w0BAQsFAAOCAQEAZZ0tjGC4ke7Prgzx+uMVObny7qQiLqkH
7sbApoyUYrKLxoEJCsIhTgk/HeCWY4VWp8fsp5mMZBb8aUqng1VkMtmCDLMhfOAo
/Z0Vk3Le4pEdsbCkTqqwSfpFfGVaAH9Y/BdQtCz/Y64dLXomEtTYS4vL9oHVkaWh
cstpIweWaqSMaZPBcVmFI56Ht1DqTU3CsaTB+rXyLhcm8YcNjdGz+cDj9/R91zmW
SK7q1f18jRzk08ucmape3nqPQYaBwIZLClX0ePVDaJF/mvjO4hFH/AAOVv5HKRGJ
LsZ6hT2qGwiqbjph8G7AZ2Un+aMxuDsn1NtQmZe81VGPXR8weHWbnw==
-----END CERTIFICATE-----
